; Function Attrs: mustprogress nofree norecurse nosync nounwind willreturn memory(argmem: write) uwtable
define dso_local void @_ZN4Luau12DiffPathNode25constructWithKindAndIndexENS0_4KindEm(ptr dead_on_unwind noalias nocapture writable writeonly sret(%"struct.Luau::DiffPathNode") align 8 %0, i32 noundef %1, i64 noundef %2) local_unnamed_addr #5 align 2 personality ptr @__gxx_personality_v0 {
_ZNSt8optionalINSt7__cxx1112basic_stringIcSt11char_traitsIcESaIcEEEED2Ev.exit:
  store i32 %1, ptr %0, align 8
  %3 = getelementptr inbounds i8, ptr %0, i64 40
  store i8 0, ptr %3, align 8
  %4 = getelementptr inbounds i8, ptr %0, i64 48
  store i64 %2, ptr %4, align 8
  %.sroa.2.0..sroa_idx.i = getelementptr inbounds i8, ptr %0, i64 56
  store i8 1, ptr %.sroa.2.0..sroa_idx.i, align 8
  ret void
}